target datalayout = "e-m:e-p270:32:32-p271:32:32-p272:64:64-i64:64-i128:128-f80:128-n8:16:32:64-S128"
target triple = "x86_64-pc-linux-gnu"

%struct.ZSTD_customMem = type { ptr, ptr, ptr }
%struct.ZSTD_frameParameters = type { i32, i32, i32 }
%struct.ZSTD_compressionParameters = type { i32, i32, i32, i32, i32, i32, i32 }
%struct.ZSTD_CCtx_params_s = type { i32, %struct.ZSTD_compressionParameters, %struct.ZSTD_frameParameters, i32, i32, i64, i32, i32, i32, i32, i64, i32, i32, %struct.ldmParams_t, i32, i32, i32, i32, i32, i32, i32, i64, i32, i32, %struct.ZSTD_customMem, i32, i32, ptr, ptr, i32 }
%struct.ldmParams_t = type { i32, i32, i32, i32, i32, i32 }

; Function Attrs: inlinehint nounwind uwtable
define internal i64 @MEM_swap64(i64 noundef %0) #2 {
  %2 = alloca i64, align 8
  store i64 %0, ptr %2, align 8, !tbaa !3
  %3 = load i64, ptr %2, align 8, !tbaa !3
  %4 = call i64 @llvm.bswap.i64(i64 %3)
  ret i64 %4
}

; Function Attrs: inlinehint nounwind uwtable
define internal void @MEM_write64(ptr noundef %0, i64 noundef %1) #2 {
  %3 = alloca ptr, align 8
  %4 = alloca i64, align 8
  store ptr %0, ptr %3, align 8, !tbaa !15
  store i64 %1, ptr %4, align 8, !tbaa !3
  %5 = load i64, ptr %4, align 8, !tbaa !3
  %6 = load ptr, ptr %3, align 8, !tbaa !15
  store i64 %5, ptr %6, align 1, !tbaa !3
  ret void
}

; Function Attrs: inlinehint nounwind uwtable
define internal void @MEM_write16(ptr noundef %0, i16 noundef zeroext %1) #2 {
  %3 = alloca ptr, align 8
  %4 = alloca i16, align 2
  store ptr %0, ptr %3, align 8, !tbaa !15
  store i16 %1, ptr %4, align 2, !tbaa !255
  %5 = load i16, ptr %4, align 2, !tbaa !255
  %6 = load ptr, ptr %3, align 8, !tbaa !15
  store i16 %5, ptr %6, align 1, !tbaa !255
  ret void
}

; Function Attrs: inlinehint nounwind uwtable
define internal i32 @MEM_swap32(i32 noundef %0) #2 {
  %2 = alloca i32, align 4
  store i32 %0, ptr %2, align 4, !tbaa !53
  %3 = load i32, ptr %2, align 4, !tbaa !53
  %4 = call i32 @llvm.bswap.i32(i32 %3)
  ret i32 %4
}

; Function Attrs: inlinehint nounwind uwtable
define internal void @MEM_write32(ptr noundef %0, i32 noundef %1) #2 {
  %3 = alloca ptr, align 8
  %4 = alloca i32, align 4
  store ptr %0, ptr %3, align 8, !tbaa !15
  store i32 %1, ptr %4, align 4, !tbaa !53
  %5 = load i32, ptr %4, align 4, !tbaa !53
  %6 = load ptr, ptr %3, align 8, !tbaa !15
  store i32 %5, ptr %6, align 1, !tbaa !53
  ret void
}

; Function Attrs: inlinehint nounwind uwtable
define internal i32 @MEM_isLittleEndian() #2 {
  ret i32 1
}

; Function Attrs: inlinehint nounwind uwtable
define internal void @MEM_writeLE64(ptr noundef %0, i64 noundef %1) #2 {
  %3 = alloca ptr, align 8
  %4 = alloca i64, align 8
  store ptr %0, ptr %3, align 8, !tbaa !15
  store i64 %1, ptr %4, align 8, !tbaa !3
  %5 = call i32 @MEM_isLittleEndian()
  %6 = icmp ne i32 %5, 0
  br i1 %6, label %7, label %10

7:                                                ; preds = %2
  %8 = load ptr, ptr %3, align 8, !tbaa !15
  %9 = load i64, ptr %4, align 8, !tbaa !3
  call void @MEM_write64(ptr noundef %8, i64 noundef %9)
  br label %14

10:                                               ; preds = %2
  %11 = load ptr, ptr %3, align 8, !tbaa !15
  %12 = load i64, ptr %4, align 8, !tbaa !3
  %13 = call i64 @MEM_swap64(i64 noundef %12)
  call void @MEM_write64(ptr noundef %11, i64 noundef %13)
  br label %14

14:                                               ; preds = %10, %7
  ret void
}

; Function Attrs: inlinehint nounwind uwtable
define internal void @MEM_writeLE16(ptr noundef %0, i16 noundef zeroext %1) #2 {
  %3 = alloca ptr, align 8
  %4 = alloca i16, align 2
  %5 = alloca ptr, align 8
  store ptr %0, ptr %3, align 8, !tbaa !15
  store i16 %1, ptr %4, align 2, !tbaa !255
  %6 = call i32 @MEM_isLittleEndian()
  %7 = icmp ne i32 %6, 0
  br i1 %7, label %8, label %11

8:                                                ; preds = %2
  %9 = load ptr, ptr %3, align 8, !tbaa !15
  %10 = load i16, ptr %4, align 2, !tbaa !255
  call void @MEM_write16(ptr noundef %9, i16 noundef zeroext %10)
  br label %23

11:                                               ; preds = %2
  call void @llvm.lifetime.start.p0(i64 8, ptr %5) #15
  %12 = load ptr, ptr %3, align 8, !tbaa !15
  store ptr %12, ptr %5, align 8, !tbaa !198
  %13 = load i16, ptr %4, align 2, !tbaa !255
  %14 = trunc i16 %13 to i8
  %15 = load ptr, ptr %5, align 8, !tbaa !198
  %16 = getelementptr inbounds i8, ptr %15, i64 0
  store i8 %14, ptr %16, align 1, !tbaa !65
  %17 = load i16, ptr %4, align 2, !tbaa !255
  %18 = zext i16 %17 to i32
  %19 = ashr i32 %18, 8
  %20 = trunc i32 %19 to i8
  %21 = load ptr, ptr %5, align 8, !tbaa !198
  %22 = getelementptr inbounds i8, ptr %21, i64 1
  store i8 %20, ptr %22, align 1, !tbaa !65
  call void @llvm.lifetime.end.p0(i64 8, ptr %5) #15
  br label %23

23:                                               ; preds = %11, %8
  ret void
}

; Function Attrs: inlinehint nounwind uwtable
define internal void @MEM_writeLE32(ptr noundef %0, i32 noundef %1) #2 {
  %3 = alloca ptr, align 8
  %4 = alloca i32, align 4
  store ptr %0, ptr %3, align 8, !tbaa !15
  store i32 %1, ptr %4, align 4, !tbaa !53
  %5 = call i32 @MEM_isLittleEndian()
  %6 = icmp ne i32 %5, 0
  br i1 %6, label %7, label %10

7:                                                ; preds = %2
  %8 = load ptr, ptr %3, align 8, !tbaa !15
  %9 = load i32, ptr %4, align 4, !tbaa !53
  call void @MEM_write32(ptr noundef %8, i32 noundef %9)
  br label %14

10:                                               ; preds = %2
  %11 = load ptr, ptr %3, align 8, !tbaa !15
  %12 = load i32, ptr %4, align 4, !tbaa !53
  %13 = call i32 @MEM_swap32(i32 noundef %12)
  call void @MEM_write32(ptr noundef %11, i32 noundef %13)
  br label %14

14:                                               ; preds = %10, %7
  ret void
}

; Function Attrs: nounwind uwtable
define internal i64 @ZSTD_writeFrameHeader(ptr noundef %0, i64 noundef %1, ptr noundef %2, i64 noundef %3, i32 noundef %4) #0 {
  %6 = alloca i64, align 8
  %7 = alloca ptr, align 8
  %8 = alloca i64, align 8
  %9 = alloca ptr, align 8
  %10 = alloca i64, align 8
  %11 = alloca i32, align 4
  %12 = alloca ptr, align 8
  %13 = alloca i32, align 4
  %14 = alloca i32, align 4
  %15 = alloca i32, align 4
  %16 = alloca i32, align 4
  %17 = alloca i32, align 4
  %18 = alloca i8, align 1
  %19 = alloca i32, align 4
  %20 = alloca i8, align 1
  %21 = alloca i64, align 8
  %22 = alloca i32, align 4
  store ptr %0, ptr %7, align 8, !tbaa !15
  store i64 %1, ptr %8, align 8, !tbaa !3
  store ptr %2, ptr %9, align 8, !tbaa !79
  store i64 %3, ptr %10, align 8, !tbaa !3
  store i32 %4, ptr %11, align 4, !tbaa !53
  call void @llvm.lifetime.start.p0(i64 8, ptr %12) #15
  %23 = load ptr, ptr %7, align 8, !tbaa !15
  store ptr %23, ptr %12, align 8, !tbaa !198
  call void @llvm.lifetime.start.p0(i64 4, ptr %13) #15
  %24 = load i32, ptr %11, align 4, !tbaa !53
  %25 = icmp ugt i32 %24, 0
  %26 = zext i1 %25 to i32
  %27 = load i32, ptr %11, align 4, !tbaa !53
  %28 = icmp uge i32 %27, 256
  %29 = zext i1 %28 to i32
  %30 = add nsw i32 %26, %29
  %31 = load i32, ptr %11, align 4, !tbaa !53
  %32 = icmp uge i32 %31, 65536
  %33 = zext i1 %32 to i32
  %34 = add nsw i32 %30, %33
  store i32 %34, ptr %13, align 4, !tbaa !53
  call void @llvm.lifetime.start.p0(i64 4, ptr %14) #15
  %35 = load ptr, ptr %9, align 8, !tbaa !79
  %36 = getelementptr inbounds nuw %struct.ZSTD_CCtx_params_s, ptr %35, i32 0, i32 2
  %37 = getelementptr inbounds nuw %struct.ZSTD_frameParameters, ptr %36, i32 0, i32 2
  %38 = load i32, ptr %37, align 8, !tbaa !113
  %39 = icmp ne i32 %38, 0
  br i1 %39, label %40, label %41

40:                                               ; preds = %5
  br label %43

41:                                               ; preds = %5
  %42 = load i32, ptr %13, align 4, !tbaa !53
  br label %43

43:                                               ; preds = %41, %40
  %44 = phi i32 [ 0, %40 ], [ %42, %41 ]
  store i32 %44, ptr %14, align 4, !tbaa !53
  call void @llvm.lifetime.start.p0(i64 4, ptr %15) #15
  %45 = load ptr, ptr %9, align 8, !tbaa !79
  %46 = getelementptr inbounds nuw %struct.ZSTD_CCtx_params_s, ptr %45, i32 0, i32 2
  %47 = getelementptr inbounds nuw %struct.ZSTD_frameParameters, ptr %46, i32 0, i32 1
  %48 = load i32, ptr %47, align 4, !tbaa !112
  %49 = icmp sgt i32 %48, 0
  %50 = zext i1 %49 to i32
  store i32 %50, ptr %15, align 4, !tbaa !53
  call void @llvm.lifetime.start.p0(i64 4, ptr %16) #15
  %51 = load ptr, ptr %9, align 8, !tbaa !79
  %52 = getelementptr inbounds nuw %struct.ZSTD_CCtx_params_s, ptr %51, i32 0, i32 1
  %53 = getelementptr inbounds nuw %struct.ZSTD_compressionParameters, ptr %52, i32 0, i32 0
  %54 = load i32, ptr %53, align 4, !tbaa !105
  %55 = shl i32 1, %54
  store i32 %55, ptr %16, align 4, !tbaa !53
  call void @llvm.lifetime.start.p0(i64 4, ptr %17) #15
  %56 = load ptr, ptr %9, align 8, !tbaa !79
  %57 = getelementptr inbounds nuw %struct.ZSTD_CCtx_params_s, ptr %56, i32 0, i32 2
  %58 = getelementptr inbounds nuw %struct.ZSTD_frameParameters, ptr %57, i32 0, i32 0
  %59 = load i32, ptr %58, align 8, !tbaa !82
  %60 = icmp ne i32 %59, 0
  br i1 %60, label %61, label %66

61:                                               ; preds = %43
  %62 = load i32, ptr %16, align 4, !tbaa !53
  %63 = zext i32 %62 to i64
  %64 = load i64, ptr %10, align 8, !tbaa !3
  %65 = icmp uge i64 %63, %64
  br label %66

66:                                               ; preds = %61, %43
  %67 = phi i1 [ false, %43 ], [ %65, %61 ]
  %68 = zext i1 %67 to i32
  store i32 %68, ptr %17, align 4, !tbaa !53
  call void @llvm.lifetime.start.p0(i64 1, ptr %18) #15
  %69 = load ptr, ptr %9, align 8, !tbaa !79
  %70 = getelementptr inbounds nuw %struct.ZSTD_CCtx_params_s, ptr %69, i32 0, i32 1
  %71 = getelementptr inbounds nuw %struct.ZSTD_compressionParameters, ptr %70, i32 0, i32 0
  %72 = load i32, ptr %71, align 4, !tbaa !105
  %73 = sub i32 %72, 10
  %74 = shl i32 %73, 3
  %75 = trunc i32 %74 to i8
  store i8 %75, ptr %18, align 1, !tbaa !65
  call void @llvm.lifetime.start.p0(i64 4, ptr %19) #15
  %76 = load ptr, ptr %9, align 8, !tbaa !79
  %77 = getelementptr inbounds nuw %struct.ZSTD_CCtx_params_s, ptr %76, i32 0, i32 2
  %78 = getelementptr inbounds nuw %struct.ZSTD_frameParameters, ptr %77, i32 0, i32 0
  %79 = load i32, ptr %78, align 8, !tbaa !82
  %80 = icmp ne i32 %79, 0
  br i1 %80, label %81, label %93

81:                                               ; preds = %66
  %82 = load i64, ptr %10, align 8, !tbaa !3
  %83 = icmp uge i64 %82, 256
  %84 = zext i1 %83 to i32
  %85 = load i64, ptr %10, align 8, !tbaa !3
  %86 = icmp uge i64 %85, 65792
  %87 = zext i1 %86 to i32
  %88 = add nsw i32 %84, %87
  %89 = load i64, ptr %10, align 8, !tbaa !3
  %90 = icmp uge i64 %89, 4294967295
  %91 = zext i1 %90 to i32
  %92 = add nsw i32 %88, %91
  br label %94

93:                                               ; preds = %66
  br label %94

94:                                               ; preds = %93, %81
  %95 = phi i32 [ %92, %81 ], [ 0, %93 ]
  store i32 %95, ptr %19, align 4, !tbaa !53
  call void @llvm.lifetime.start.p0(i64 1, ptr %20) #15
  %96 = load i32, ptr %14, align 4, !tbaa !53
  %97 = load i32, ptr %15, align 4, !tbaa !53
  %98 = shl i32 %97, 2
  %99 = add i32 %96, %98
  %100 = load i32, ptr %17, align 4, !tbaa !53
  %101 = shl i32 %100, 5
  %102 = add i32 %99, %101
  %103 = load i32, ptr %19, align 4, !tbaa !53
  %104 = shl i32 %103, 6
  %105 = add i32 %102, %104
  %106 = trunc i32 %105 to i8
  store i8 %106, ptr %20, align 1, !tbaa !65
  call void @llvm.lifetime.start.p0(i64 8, ptr %21) #15
  store i64 0, ptr %21, align 8, !tbaa !3
  br label %107

107:                                              ; preds = %94
  %108 = load i64, ptr %8, align 8, !tbaa !3
  %109 = icmp ult i64 %108, 18
  br i1 %109, label %110, label %123

110:                                              ; preds = %107
  br label %111

111:                                              ; preds = %110
  br label %112

112:                                              ; preds = %111
  br label %113

113:                                              ; preds = %112
  br label %114

114:                                              ; preds = %113
  br label %115

115:                                              ; preds = %114
  br label %116

116:                                              ; preds = %115
  br label %117

117:                                              ; preds = %116
  br label %118

118:                                              ; preds = %117
  br label %119

119:                                              ; preds = %118
  br label %120

120:                                              ; preds = %119
  br label %121

121:                                              ; preds = %120
  br label %122

122:                                              ; preds = %121
  store i64 -70, ptr %6, align 8
  store i32 1, ptr %22, align 4
  br label %215

123:                                              ; preds = %107
  br label %124

124:                                              ; preds = %123
  br label %125

125:                                              ; preds = %124
  br label %126

126:                                              ; preds = %125
  br label %127

127:                                              ; preds = %126
  br label %128

128:                                              ; preds = %127
  %129 = load ptr, ptr %9, align 8, !tbaa !79
  %130 = getelementptr inbounds nuw %struct.ZSTD_CCtx_params_s, ptr %129, i32 0, i32 0
  %131 = load i32, ptr %130, align 8, !tbaa !104
  %132 = icmp eq i32 %131, 0
  br i1 %132, label %133, label %135

133:                                              ; preds = %128
  %134 = load ptr, ptr %7, align 8, !tbaa !15
  call void @MEM_writeLE32(ptr noundef %134, i32 noundef -47205080)
  store i64 4, ptr %21, align 8, !tbaa !3
  br label %135

135:                                              ; preds = %133, %128
  %136 = load i8, ptr %20, align 1, !tbaa !65
  %137 = load ptr, ptr %12, align 8, !tbaa !198
  %138 = load i64, ptr %21, align 8, !tbaa !3
  %139 = add i64 %138, 1
  store i64 %139, ptr %21, align 8, !tbaa !3
  %140 = getelementptr inbounds nuw i8, ptr %137, i64 %138
  store i8 %136, ptr %140, align 1, !tbaa !65
  %141 = load i32, ptr %17, align 4, !tbaa !53
  %142 = icmp ne i32 %141, 0
  br i1 %142, label %149, label %143

143:                                              ; preds = %135
  %144 = load i8, ptr %18, align 1, !tbaa !65
  %145 = load ptr, ptr %12, align 8, !tbaa !198
  %146 = load i64, ptr %21, align 8, !tbaa !3
  %147 = add i64 %146, 1
  store i64 %147, ptr %21, align 8, !tbaa !3
  %148 = getelementptr inbounds nuw i8, ptr %145, i64 %146
  store i8 %144, ptr %148, align 1, !tbaa !65
  br label %149

149:                                              ; preds = %143, %135
  %150 = load i32, ptr %14, align 4, !tbaa !53
  switch i32 %150, label %151 [
    i32 0, label %175
    i32 1, label %152
    i32 2, label %160
    i32 3, label %168
  ]

151:                                              ; preds = %149
  br label %175

152:                                              ; preds = %149
  %153 = load i32, ptr %11, align 4, !tbaa !53
  %154 = trunc i32 %153 to i8
  %155 = load ptr, ptr %12, align 8, !tbaa !198
  %156 = load i64, ptr %21, align 8, !tbaa !3
  %157 = getelementptr inbounds nuw i8, ptr %155, i64 %156
  store i8 %154, ptr %157, align 1, !tbaa !65
  %158 = load i64, ptr %21, align 8, !tbaa !3
  %159 = add i64 %158, 1
  store i64 %159, ptr %21, align 8, !tbaa !3
  br label %175

160:                                              ; preds = %149
  %161 = load ptr, ptr %12, align 8, !tbaa !198
  %162 = load i64, ptr %21, align 8, !tbaa !3
  %163 = getelementptr inbounds nuw i8, ptr %161, i64 %162
  %164 = load i32, ptr %11, align 4, !tbaa !53
  %165 = trunc i32 %164 to i16
  call void @MEM_writeLE16(ptr noundef %163, i16 noundef zeroext %165)
  %166 = load i64, ptr %21, align 8, !tbaa !3
  %167 = add i64 %166, 2
  store i64 %167, ptr %21, align 8, !tbaa !3
  br label %175

168:                                              ; preds = %149
  %169 = load ptr, ptr %12, align 8, !tbaa !198
  %170 = load i64, ptr %21, align 8, !tbaa !3
  %171 = getelementptr inbounds nuw i8, ptr %169, i64 %170
  %172 = load i32, ptr %11, align 4, !tbaa !53
  call void @MEM_writeLE32(ptr noundef %171, i32 noundef %172)
  %173 = load i64, ptr %21, align 8, !tbaa !3
  %174 = add i64 %173, 4
  store i64 %174, ptr %21, align 8, !tbaa !3
  br label %175

175:                                              ; preds = %168, %160, %152, %151, %149
  %176 = load i32, ptr %19, align 4, !tbaa !53
  switch i32 %176, label %177 [
    i32 0, label %178
    i32 1, label %189
    i32 2, label %198
    i32 3, label %206
  ]

177:                                              ; preds = %175
  br label %178

178:                                              ; preds = %175, %177
  %179 = load i32, ptr %17, align 4, !tbaa !53
  %180 = icmp ne i32 %179, 0
  br i1 %180, label %181, label %188

181:                                              ; preds = %178
  %182 = load i64, ptr %10, align 8, !tbaa !3
  %183 = trunc i64 %182 to i8
  %184 = load ptr, ptr %12, align 8, !tbaa !198
  %185 = load i64, ptr %21, align 8, !tbaa !3
  %186 = add i64 %185, 1
  store i64 %186, ptr %21, align 8, !tbaa !3
  %187 = getelementptr inbounds nuw i8, ptr %184, i64 %185
  store i8 %183, ptr %187, align 1, !tbaa !65
  br label %188

188:                                              ; preds = %181, %178
  br label %213

189:                                              ; preds = %175
  %190 = load ptr, ptr %12, align 8, !tbaa !198
  %191 = load i64, ptr %21, align 8, !tbaa !3
  %192 = getelementptr inbounds nuw i8, ptr %190, i64 %191
  %193 = load i64, ptr %10, align 8, !tbaa !3
  %194 = sub i64 %193, 256
  %195 = trunc i64 %194 to i16
  call void @MEM_writeLE16(ptr noundef %192, i16 noundef zeroext %195)
  %196 = load i64, ptr %21, align 8, !tbaa !3
  %197 = add i64 %196, 2
  store i64 %197, ptr %21, align 8, !tbaa !3
  br label %213

198:                                              ; preds = %175
  %199 = load ptr, ptr %12, align 8, !tbaa !198
  %200 = load i64, ptr %21, align 8, !tbaa !3
  %201 = getelementptr inbounds nuw i8, ptr %199, i64 %200
  %202 = load i64, ptr %10, align 8, !tbaa !3
  %203 = trunc i64 %202 to i32
  call void @MEM_writeLE32(ptr noundef %201, i32 noundef %203)
  %204 = load i64, ptr %21, align 8, !tbaa !3
  %205 = add i64 %204, 4
  store i64 %205, ptr %21, align 8, !tbaa !3
  br label %213

206:                                              ; preds = %175
  %207 = load ptr, ptr %12, align 8, !tbaa !198
  %208 = load i64, ptr %21, align 8, !tbaa !3
  %209 = getelementptr inbounds nuw i8, ptr %207, i64 %208
  %210 = load i64, ptr %10, align 8, !tbaa !3
  call void @MEM_writeLE64(ptr noundef %209, i64 noundef %210)
  %211 = load i64, ptr %21, align 8, !tbaa !3
  %212 = add i64 %211, 8
  store i64 %212, ptr %21, align 8, !tbaa !3
  br label %213

213:                                              ; preds = %206, %198, %189, %188
  %214 = load i64, ptr %21, align 8, !tbaa !3
  store i64 %214, ptr %6, align 8
  store i32 1, ptr %22, align 4
  br label %215

215:                                              ; preds = %213, %122
  call void @llvm.lifetime.end.p0(i64 8, ptr %21) #15
  call void @llvm.lifetime.end.p0(i64 1, ptr %20) #15
  call void @llvm.lifetime.end.p0(i64 4, ptr %19) #15
  call void @llvm.lifetime.end.p0(i64 1, ptr %18) #15
  call void @llvm.lifetime.end.p0(i64 4, ptr %17) #15
  call void @llvm.lifetime.end.p0(i64 4, ptr %16) #15
  call void @llvm.lifetime.end.p0(i64 4, ptr %15) #15
  call void @llvm.lifetime.end.p0(i64 4, ptr %14) #15
  call void @llvm.lifetime.end.p0(i64 4, ptr %13) #15
  call void @llvm.lifetime.end.p0(i64 8, ptr %12) #15
  %216 = load i64, ptr %6, align 8
  ret i64 %216
}